target datalayout = "e-m:e-p270:32:32-p271:32:32-p272:64:64-i64:64-i128:128-f80:128-n8:16:32:64-S128"
target triple = "x86_64-pc-linux-gnu"

%struct.tree_desc = type { ptr, ptr, %struct.name_entry, i32, i32 }
%struct.name_entry = type { %struct.object_id, ptr, i32, i32 }
%struct.object_id = type { [32 x i8], i32 }

@.str.2 = private unnamed_addr constant [25 x i8] c"unable to read tree (%s)\00", align 1
@.str.3 = private unnamed_addr constant [17 x i8] c"%s is not a tree\00", align 1

; Function Attrs: inlinehint nounwind uwtable
define internal i32 @tree_entry_len(ptr noundef %0) #3 {
  %2 = alloca ptr, align 8
  store ptr %0, ptr %2, align 8, !tbaa !55
  %3 = load ptr, ptr %2, align 8, !tbaa !55
  %4 = getelementptr inbounds nuw %struct.name_entry, ptr %3, i32 0, i32 2
  %5 = load i32, ptr %4, align 8, !tbaa !59
  ret i32 %5
}

; Function Attrs: nounwind uwtable
define internal i32 @score_matches(i32 noundef %0, i32 noundef %1) #0 {
  %3 = alloca i32, align 4
  %4 = alloca i32, align 4
  %5 = alloca i32, align 4
  store i32 %0, ptr %3, align 4, !tbaa !11
  store i32 %1, ptr %4, align 4, !tbaa !11
  call void @llvm.lifetime.start.p0(i64 4, ptr %5) #9
  %6 = load i32, ptr %3, align 4, !tbaa !11
  %7 = and i32 %6, 61440
  %8 = icmp eq i32 %7, 16384
  %9 = zext i1 %8 to i32
  %10 = load i32, ptr %4, align 4, !tbaa !11
  %11 = and i32 %10, 61440
  %12 = icmp eq i32 %11, 16384
  %13 = zext i1 %12 to i32
  %14 = icmp ne i32 %9, %13
  br i1 %14, label %15, label %16

15:                                               ; preds = %2
  store i32 -100, ptr %5, align 4, !tbaa !11
  br label %41

16:                                               ; preds = %2
  %17 = load i32, ptr %3, align 4, !tbaa !11
  %18 = and i32 %17, 61440
  %19 = icmp eq i32 %18, 40960
  %20 = zext i1 %19 to i32
  %21 = load i32, ptr %4, align 4, !tbaa !11
  %22 = and i32 %21, 61440
  %23 = icmp eq i32 %22, 40960
  %24 = zext i1 %23 to i32
  %25 = icmp ne i32 %20, %24
  br i1 %25, label %26, label %27

26:                                               ; preds = %16
  store i32 -50, ptr %5, align 4, !tbaa !11
  br label %40

27:                                               ; preds = %16
  %28 = load i32, ptr %3, align 4, !tbaa !11
  %29 = and i32 %28, 61440
  %30 = icmp eq i32 %29, 16384
  br i1 %30, label %31, label %32

31:                                               ; preds = %27
  store i32 1000, ptr %5, align 4, !tbaa !11
  br label %39

32:                                               ; preds = %27
  %33 = load i32, ptr %3, align 4, !tbaa !11
  %34 = and i32 %33, 61440
  %35 = icmp eq i32 %34, 40960
  br i1 %35, label %36, label %37

36:                                               ; preds = %32
  store i32 500, ptr %5, align 4, !tbaa !11
  br label %38

37:                                               ; preds = %32
  store i32 250, ptr %5, align 4, !tbaa !11
  br label %38

38:                                               ; preds = %37, %36
  br label %39

39:                                               ; preds = %38, %31
  br label %40

40:                                               ; preds = %39, %26
  br label %41

41:                                               ; preds = %40, %15
  %42 = load i32, ptr %5, align 4, !tbaa !11
  call void @llvm.lifetime.end.p0(i64 4, ptr %5) #9
  ret i32 %42
}

; Function Attrs: nounwind uwtable
define internal i32 @score_differs(i32 noundef %0, i32 noundef %1) #0 {
  %3 = alloca i32, align 4
  %4 = alloca i32, align 4
  %5 = alloca i32, align 4
  store i32 %0, ptr %3, align 4, !tbaa !11
  store i32 %1, ptr %4, align 4, !tbaa !11
  call void @llvm.lifetime.start.p0(i64 4, ptr %5) #9
  %6 = load i32, ptr %3, align 4, !tbaa !11
  %7 = and i32 %6, 61440
  %8 = icmp eq i32 %7, 16384
  %9 = zext i1 %8 to i32
  %10 = load i32, ptr %4, align 4, !tbaa !11
  %11 = and i32 %10, 61440
  %12 = icmp eq i32 %11, 16384
  %13 = zext i1 %12 to i32
  %14 = icmp ne i32 %9, %13
  br i1 %14, label %15, label %16

15:                                               ; preds = %2
  store i32 -100, ptr %5, align 4, !tbaa !11
  br label %29

16:                                               ; preds = %2
  %17 = load i32, ptr %3, align 4, !tbaa !11
  %18 = and i32 %17, 61440
  %19 = icmp eq i32 %18, 40960
  %20 = zext i1 %19 to i32
  %21 = load i32, ptr %4, align 4, !tbaa !11
  %22 = and i32 %21, 61440
  %23 = icmp eq i32 %22, 40960
  %24 = zext i1 %23 to i32
  %25 = icmp ne i32 %20, %24
  br i1 %25, label %26, label %27

26:                                               ; preds = %16
  store i32 -50, ptr %5, align 4, !tbaa !11
  br label %28

27:                                               ; preds = %16
  store i32 -5, ptr %5, align 4, !tbaa !11
  br label %28

28:                                               ; preds = %27, %26
  br label %29

29:                                               ; preds = %28, %15
  %30 = load i32, ptr %5, align 4, !tbaa !11
  call void @llvm.lifetime.end.p0(i64 4, ptr %5) #9
  ret i32 %30
}

; Function Attrs: inlinehint nounwind uwtable
define internal i32 @oideq(ptr noundef %0, ptr noundef %1) #3 {
  %3 = alloca ptr, align 8
  %4 = alloca ptr, align 8
  store ptr %0, ptr %3, align 8, !tbaa !9
  store ptr %1, ptr %4, align 8, !tbaa !9
  %5 = load ptr, ptr %3, align 8, !tbaa !9
  %6 = getelementptr inbounds nuw %struct.object_id, ptr %5, i32 0, i32 0
  %7 = getelementptr inbounds [32 x i8], ptr %6, i64 0, i64 0
  %8 = load ptr, ptr %4, align 8, !tbaa !9
  %9 = getelementptr inbounds nuw %struct.object_id, ptr %8, i32 0, i32 0
  %10 = getelementptr inbounds [32 x i8], ptr %9, i64 0, i64 0
  %11 = call i32 @memcmp(ptr noundef %7, ptr noundef %10, i64 noundef 32) #11
  %12 = icmp ne i32 %11, 0
  %13 = xor i1 %12, true
  %14 = zext i1 %13 to i32
  ret i32 %14
}

; Function Attrs: nounwind uwtable
define internal i32 @score_missing(i32 noundef %0) #0 {
  %2 = alloca i32, align 4
  %3 = alloca i32, align 4
  store i32 %0, ptr %2, align 4, !tbaa !11
  call void @llvm.lifetime.start.p0(i64 4, ptr %3) #9
  %4 = load i32, ptr %2, align 4, !tbaa !11
  %5 = and i32 %4, 61440
  %6 = icmp eq i32 %5, 16384
  br i1 %6, label %7, label %8

7:                                                ; preds = %1
  store i32 -1000, ptr %3, align 4, !tbaa !11
  br label %15

8:                                                ; preds = %1
  %9 = load i32, ptr %2, align 4, !tbaa !11
  %10 = and i32 %9, 61440
  %11 = icmp eq i32 %10, 40960
  br i1 %11, label %12, label %13

12:                                               ; preds = %8
  store i32 -500, ptr %3, align 4, !tbaa !11
  br label %14

13:                                               ; preds = %8
  store i32 -50, ptr %3, align 4, !tbaa !11
  br label %14

14:                                               ; preds = %13, %12
  br label %15

15:                                               ; preds = %14, %7
  %16 = load i32, ptr %3, align 4, !tbaa !11
  call void @llvm.lifetime.end.p0(i64 4, ptr %3) #9
  ret i32 %16
}

; Function Attrs: nounwind uwtable
define internal i32 @base_name_entries_compare(ptr noundef %0, ptr noundef %1) #0 {
  %3 = alloca ptr, align 8
  %4 = alloca ptr, align 8
  store ptr %0, ptr %3, align 8, !tbaa !55
  store ptr %1, ptr %4, align 8, !tbaa !55
  %5 = load ptr, ptr %3, align 8, !tbaa !55
  %6 = getelementptr inbounds nuw %struct.name_entry, ptr %5, i32 0, i32 1
  %7 = load ptr, ptr %6, align 8, !tbaa !57
  %8 = load ptr, ptr %3, align 8, !tbaa !55
  %9 = call i32 @tree_entry_len(ptr noundef %8)
  %10 = sext i32 %9 to i64
  %11 = load ptr, ptr %3, align 8, !tbaa !55
  %12 = getelementptr inbounds nuw %struct.name_entry, ptr %11, i32 0, i32 3
  %13 = load i32, ptr %12, align 4, !tbaa !58
  %14 = load ptr, ptr %4, align 8, !tbaa !55
  %15 = getelementptr inbounds nuw %struct.name_entry, ptr %14, i32 0, i32 1
  %16 = load ptr, ptr %15, align 8, !tbaa !57
  %17 = load ptr, ptr %4, align 8, !tbaa !55
  %18 = call i32 @tree_entry_len(ptr noundef %17)
  %19 = sext i32 %18 to i64
  %20 = load ptr, ptr %4, align 8, !tbaa !55
  %21 = getelementptr inbounds nuw %struct.name_entry, ptr %20, i32 0, i32 3
  %22 = load i32, ptr %21, align 4, !tbaa !58
  %23 = call i32 @base_name_compare(ptr noundef %7, i64 noundef %10, i32 noundef %13, ptr noundef %16, i64 noundef %19, i32 noundef %22)
  ret i32 %23
}

; Function Attrs: nounwind uwtable
define internal ptr @fill_tree_desc_strict(ptr noundef %0, ptr noundef %1, ptr noundef %2) #0 {
  %4 = alloca ptr, align 8
  %5 = alloca ptr, align 8
  %6 = alloca ptr, align 8
  %7 = alloca ptr, align 8
  %8 = alloca i32, align 4
  %9 = alloca i64, align 8
  store ptr %0, ptr %4, align 8, !tbaa !4
  store ptr %1, ptr %5, align 8, !tbaa !53
  store ptr %2, ptr %6, align 8, !tbaa !9
  call void @llvm.lifetime.start.p0(i64 8, ptr %7) #9
  call void @llvm.lifetime.start.p0(i64 4, ptr %8) #9
  call void @llvm.lifetime.start.p0(i64 8, ptr %9) #9
  %10 = load ptr, ptr %4, align 8, !tbaa !4
  %11 = load ptr, ptr %6, align 8, !tbaa !9
  %12 = call ptr @repo_read_object_file(ptr noundef %10, ptr noundef %11, ptr noundef %8, ptr noundef %9)
  store ptr %12, ptr %7, align 8, !tbaa !16
  %13 = load ptr, ptr %7, align 8, !tbaa !16
  %14 = icmp ne ptr %13, null
  br i1 %14, label %18, label %15

15:                                               ; preds = %3
  %16 = load ptr, ptr %6, align 8, !tbaa !9
  %17 = call ptr @oid_to_hex(ptr noundef %16)
  call void (ptr, ...) @die(ptr noundef @.str.2, ptr noundef %17) #10
  unreachable

18:                                               ; preds = %3
  %19 = load i32, ptr %8, align 4, !tbaa !11
  %20 = icmp ne i32 %19, 2
  br i1 %20, label %21, label %24

21:                                               ; preds = %18
  %22 = load ptr, ptr %6, align 8, !tbaa !9
  %23 = call ptr @oid_to_hex(ptr noundef %22)
  call void (ptr, ...) @die(ptr noundef @.str.3, ptr noundef %23) #10
  unreachable

24:                                               ; preds = %18
  %25 = load ptr, ptr %5, align 8, !tbaa !53
  %26 = load ptr, ptr %6, align 8, !tbaa !9
  %27 = load ptr, ptr %7, align 8, !tbaa !16
  %28 = load i64, ptr %9, align 8, !tbaa !32
  call void @init_tree_desc(ptr noundef %25, ptr noundef %26, ptr noundef %27, i64 noundef %28)
  %29 = load ptr, ptr %7, align 8, !tbaa !16
  call void @llvm.lifetime.end.p0(i64 8, ptr %9) #9
  call void @llvm.lifetime.end.p0(i64 4, ptr %8) #9
  call void @llvm.lifetime.end.p0(i64 8, ptr %7) #9
  ret ptr %29
}

; Function Attrs: nounwind uwtable
define internal i32 @score_trees(ptr noundef %0, ptr noundef %1, ptr noundef %2) #0 {
  %4 = alloca ptr, align 8
  %5 = alloca ptr, align 8
  %6 = alloca ptr, align 8
  %7 = alloca %struct.tree_desc, align 8
  %8 = alloca %struct.tree_desc, align 8
  %9 = alloca ptr, align 8
  %10 = alloca ptr, align 8
  %11 = alloca i32, align 4
  %12 = alloca i32, align 4
  %13 = alloca i32, align 4
  store ptr %0, ptr %4, align 8, !tbaa !4
  store ptr %1, ptr %5, align 8, !tbaa !9
  store ptr %2, ptr %6, align 8, !tbaa !9
  call void @llvm.lifetime.start.p0(i64 80, ptr %7) #9
  call void @llvm.lifetime.start.p0(i64 80, ptr %8) #9
  call void @llvm.lifetime.start.p0(i64 8, ptr %9) #9
  %14 = load ptr, ptr %4, align 8, !tbaa !4
  %15 = load ptr, ptr %5, align 8, !tbaa !9
  %16 = call ptr @fill_tree_desc_strict(ptr noundef %14, ptr noundef %7, ptr noundef %15)
  store ptr %16, ptr %9, align 8, !tbaa !16
  call void @llvm.lifetime.start.p0(i64 8, ptr %10) #9
  %17 = load ptr, ptr %4, align 8, !tbaa !4
  %18 = load ptr, ptr %6, align 8, !tbaa !9
  %19 = call ptr @fill_tree_desc_strict(ptr noundef %17, ptr noundef %8, ptr noundef %18)
  store ptr %19, ptr %10, align 8, !tbaa !16
  call void @llvm.lifetime.start.p0(i64 4, ptr %11) #9
  store i32 0, ptr %11, align 4, !tbaa !11
  br label %20

20:                                               ; preds = %97, %3
  call void @llvm.lifetime.start.p0(i64 4, ptr %12) #9
  %21 = getelementptr inbounds nuw %struct.tree_desc, ptr %7, i32 0, i32 3
  %22 = load i32, ptr %21, align 8, !tbaa !17
  %23 = icmp ne i32 %22, 0
  br i1 %23, label %24, label %32

24:                                               ; preds = %20
  %25 = getelementptr inbounds nuw %struct.tree_desc, ptr %8, i32 0, i32 3
  %26 = load i32, ptr %25, align 8, !tbaa !17
  %27 = icmp ne i32 %26, 0
  br i1 %27, label %28, label %32

28:                                               ; preds = %24
  %29 = getelementptr inbounds nuw %struct.tree_desc, ptr %7, i32 0, i32 2
  %30 = getelementptr inbounds nuw %struct.tree_desc, ptr %8, i32 0, i32 2
  %31 = call i32 @base_name_entries_compare(ptr noundef %29, ptr noundef %30)
  store i32 %31, ptr %12, align 4, !tbaa !11
  br label %45

32:                                               ; preds = %24, %20
  %33 = getelementptr inbounds nuw %struct.tree_desc, ptr %7, i32 0, i32 3
  %34 = load i32, ptr %33, align 8, !tbaa !17
  %35 = icmp ne i32 %34, 0
  br i1 %35, label %36, label %37

36:                                               ; preds = %32
  store i32 -1, ptr %12, align 4, !tbaa !11
  br label %44

37:                                               ; preds = %32
  %38 = getelementptr inbounds nuw %struct.tree_desc, ptr %8, i32 0, i32 3
  %39 = load i32, ptr %38, align 8, !tbaa !17
  %40 = icmp ne i32 %39, 0
  br i1 %40, label %41, label %42

41:                                               ; preds = %37
  store i32 1, ptr %12, align 4, !tbaa !11
  br label %43

42:                                               ; preds = %37
  store i32 2, ptr %13, align 4
  br label %95

43:                                               ; preds = %41
  br label %44

44:                                               ; preds = %43, %36
  br label %45

45:                                               ; preds = %44, %28
  %46 = load i32, ptr %12, align 4, !tbaa !11
  %47 = icmp slt i32 %46, 0
  br i1 %47, label %48, label %55

48:                                               ; preds = %45
  %49 = getelementptr inbounds nuw %struct.tree_desc, ptr %7, i32 0, i32 2
  %50 = getelementptr inbounds nuw %struct.name_entry, ptr %49, i32 0, i32 3
  %51 = load i32, ptr %50, align 4, !tbaa !22
  %52 = call i32 @score_missing(i32 noundef %51)
  %53 = load i32, ptr %11, align 4, !tbaa !11
  %54 = add nsw i32 %53, %52
  store i32 %54, ptr %11, align 4, !tbaa !11
  call void @update_tree_entry(ptr noundef %7)
  br label %94

55:                                               ; preds = %45
  %56 = load i32, ptr %12, align 4, !tbaa !11
  %57 = icmp sgt i32 %56, 0
  br i1 %57, label %58, label %65

58:                                               ; preds = %55
  %59 = getelementptr inbounds nuw %struct.tree_desc, ptr %8, i32 0, i32 2
  %60 = getelementptr inbounds nuw %struct.name_entry, ptr %59, i32 0, i32 3
  %61 = load i32, ptr %60, align 4, !tbaa !22
  %62 = call i32 @score_missing(i32 noundef %61)
  %63 = load i32, ptr %11, align 4, !tbaa !11
  %64 = add nsw i32 %63, %62
  store i32 %64, ptr %11, align 4, !tbaa !11
  call void @update_tree_entry(ptr noundef %8)
  br label %93

65:                                               ; preds = %55
  %66 = getelementptr inbounds nuw %struct.tree_desc, ptr %7, i32 0, i32 2
  %67 = getelementptr inbounds nuw %struct.name_entry, ptr %66, i32 0, i32 0
  %68 = getelementptr inbounds nuw %struct.tree_desc, ptr %8, i32 0, i32 2
  %69 = getelementptr inbounds nuw %struct.name_entry, ptr %68, i32 0, i32 0
  %70 = call i32 @oideq(ptr noundef %67, ptr noundef %69)
  %71 = icmp ne i32 %70, 0
  br i1 %71, label %82, label %72

72:                                               ; preds = %65
  %73 = getelementptr inbounds nuw %struct.tree_desc, ptr %7, i32 0, i32 2
  %74 = getelementptr inbounds nuw %struct.name_entry, ptr %73, i32 0, i32 3
  %75 = load i32, ptr %74, align 4, !tbaa !22
  %76 = getelementptr inbounds nuw %struct.tree_desc, ptr %8, i32 0, i32 2
  %77 = getelementptr inbounds nuw %struct.name_entry, ptr %76, i32 0, i32 3
  %78 = load i32, ptr %77, align 4, !tbaa !22
  %79 = call i32 @score_differs(i32 noundef %75, i32 noundef %78)
  %80 = load i32, ptr %11, align 4, !tbaa !11
  %81 = add nsw i32 %80, %79
  store i32 %81, ptr %11, align 4, !tbaa !11
  br label %92

82:                                               ; preds = %65
  %83 = getelementptr inbounds nuw %struct.tree_desc, ptr %7, i32 0, i32 2
  %84 = getelementptr inbounds nuw %struct.name_entry, ptr %83, i32 0, i32 3
  %85 = load i32, ptr %84, align 4, !tbaa !22
  %86 = getelementptr inbounds nuw %struct.tree_desc, ptr %8, i32 0, i32 2
  %87 = getelementptr inbounds nuw %struct.name_entry, ptr %86, i32 0, i32 3
  %88 = load i32, ptr %87, align 4, !tbaa !22
  %89 = call i32 @score_matches(i32 noundef %85, i32 noundef %88)
  %90 = load i32, ptr %11, align 4, !tbaa !11
  %91 = add nsw i32 %90, %89
  store i32 %91, ptr %11, align 4, !tbaa !11
  br label %92

92:                                               ; preds = %82, %72
  call void @update_tree_entry(ptr noundef %7)
  call void @update_tree_entry(ptr noundef %8)
  br label %93

93:                                               ; preds = %92, %58
  br label %94

94:                                               ; preds = %93, %48
  store i32 0, ptr %13, align 4
  br label %95

95:                                               ; preds = %94, %42
  call void @llvm.lifetime.end.p0(i64 4, ptr %12) #9
  %96 = load i32, ptr %13, align 4
  switch i32 %96, label %102 [
    i32 0, label %97
    i32 2, label %98
  ]

97:                                               ; preds = %95
  br label %20

98:                                               ; preds = %95
  %99 = load ptr, ptr %9, align 8, !tbaa !16
  call void @free(ptr noundef %99) #9
  %100 = load ptr, ptr %10, align 8, !tbaa !16
  call void @free(ptr noundef %100) #9
  %101 = load i32, ptr %11, align 4, !tbaa !11
  store i32 1, ptr %13, align 4
  call void @llvm.lifetime.end.p0(i64 4, ptr %11) #9
  call void @llvm.lifetime.end.p0(i64 8, ptr %10) #9
  call void @llvm.lifetime.end.p0(i64 8, ptr %9) #9
  call void @llvm.lifetime.end.p0(i64 80, ptr %8) #9
  call void @llvm.lifetime.end.p0(i64 80, ptr %7) #9
  ret i32 %101

102:                                              ; preds = %95
  unreachable
}