; Function Attrs: nounwind uwtable
define internal fastcc i32 @score_trees(ptr noundef %0, ptr noundef %1, ptr noundef %2) unnamed_addr #0 {
  %4 = alloca i32, align 4
  %5 = alloca i64, align 8
  %6 = alloca i32, align 4
  %7 = alloca i64, align 8
  %8 = alloca %struct.tree_desc, align 8
  %9 = alloca %struct.tree_desc, align 8
  call void @llvm.lifetime.start.p0(i64 80, ptr nonnull %8) #11
  call void @llvm.lifetime.start.p0(i64 80, ptr nonnull %9) #11
  call void @llvm.lifetime.start.p0(i64 4, ptr nonnull %6) #11
  call void @llvm.lifetime.start.p0(i64 8, ptr nonnull %7) #11
  %10 = call ptr @repo_read_object_file(ptr noundef %0, ptr noundef %1, ptr noundef nonnull %6, ptr noundef nonnull %7) #11
  %.not.i = icmp eq ptr %10, null
  br i1 %.not.i, label %11, label %13

11:                                               ; preds = %3
  %12 = call ptr @oid_to_hex(ptr noundef %1) #11
  call void (ptr, ...) @die(ptr noundef nonnull @.str.2, ptr noundef %12) #12
  unreachable

13:                                               ; preds = %3
  %14 = load i32, ptr %6, align 4, !tbaa !4
  %.not9.i = icmp eq i32 %14, 2
  br i1 %.not9.i, label %fill_tree_desc_strict.exit, label %15

15:                                               ; preds = %13
  %16 = call ptr @oid_to_hex(ptr noundef %1) #11
  call void (ptr, ...) @die(ptr noundef nonnull @.str.3, ptr noundef %16) #12
  unreachable

fill_tree_desc_strict.exit:                       ; preds = %13
  %17 = load i64, ptr %7, align 8, !tbaa !14
  call void @init_tree_desc(ptr noundef nonnull %8, ptr noundef %1, ptr noundef nonnull %10, i64 noundef %17) #11
  call void @llvm.lifetime.end.p0(i64 8, ptr nonnull %7) #11
  call void @llvm.lifetime.end.p0(i64 4, ptr nonnull %6) #11
  call void @llvm.lifetime.start.p0(i64 4, ptr nonnull %4) #11
  call void @llvm.lifetime.start.p0(i64 8, ptr nonnull %5) #11
  %18 = call ptr @repo_read_object_file(ptr noundef %0, ptr noundef %2, ptr noundef nonnull %4, ptr noundef nonnull %5) #11
  %.not.i19 = icmp eq ptr %18, null
  br i1 %.not.i19, label %19, label %21

19:                                               ; preds = %fill_tree_desc_strict.exit
  %20 = call ptr @oid_to_hex(ptr noundef %2) #11
  call void (ptr, ...) @die(ptr noundef nonnull @.str.2, ptr noundef %20) #12
  unreachable

21:                                               ; preds = %fill_tree_desc_strict.exit
  %22 = load i32, ptr %4, align 4, !tbaa !4
  %.not9.i20 = icmp eq i32 %22, 2
  br i1 %.not9.i20, label %fill_tree_desc_strict.exit21, label %23

23:                                               ; preds = %21
  %24 = call ptr @oid_to_hex(ptr noundef %2) #11
  call void (ptr, ...) @die(ptr noundef nonnull @.str.3, ptr noundef %24) #12
  unreachable

fill_tree_desc_strict.exit21:                     ; preds = %21
  %25 = load i64, ptr %5, align 8, !tbaa !14
  call void @init_tree_desc(ptr noundef nonnull %9, ptr noundef %2, ptr noundef nonnull %18, i64 noundef %25) #11
  call void @llvm.lifetime.end.p0(i64 8, ptr nonnull %5) #11
  call void @llvm.lifetime.end.p0(i64 4, ptr nonnull %4) #11
  %26 = getelementptr inbounds nuw i8, ptr %8, i64 72
  %27 = getelementptr inbounds nuw i8, ptr %9, i64 72
  %28 = getelementptr inbounds nuw i8, ptr %8, i64 56
  %29 = getelementptr inbounds nuw i8, ptr %8, i64 64
  %30 = getelementptr inbounds nuw i8, ptr %8, i64 68
  %31 = getelementptr inbounds nuw i8, ptr %9, i64 56
  %32 = getelementptr inbounds nuw i8, ptr %9, i64 64
  %33 = getelementptr inbounds nuw i8, ptr %9, i64 68
  %34 = getelementptr inbounds nuw i8, ptr %8, i64 16
  %35 = getelementptr inbounds nuw i8, ptr %9, i64 16
  br label %36

36:                                               ; preds = %74, %fill_tree_desc_strict.exit21
  %.016 = phi i32 [ 0, %fill_tree_desc_strict.exit21 ], [ %.2, %74 ]
  %37 = load i32, ptr %26, align 8, !tbaa !16
  %38 = icmp ne i32 %37, 0
  %39 = load i32, ptr %27, align 8
  %40 = icmp ne i32 %39, 0
  %or.cond = select i1 %38, i1 %40, i1 false
  br i1 %or.cond, label %41, label %49

41:                                               ; preds = %36
  %42 = load ptr, ptr %28, align 8, !tbaa !20
  %.val.i = load i32, ptr %29, align 8, !tbaa !21
  %43 = sext i32 %.val.i to i64
  %44 = load i32, ptr %30, align 4, !tbaa !22
  %45 = load ptr, ptr %31, align 8, !tbaa !20
  %.val6.i = load i32, ptr %32, align 8, !tbaa !21
  %46 = sext i32 %.val6.i to i64
  %47 = load i32, ptr %33, align 4, !tbaa !22
  %48 = call i32 @base_name_compare(ptr noundef %42, i64 noundef %43, i32 noundef %44, ptr noundef %45, i64 noundef %46, i32 noundef %47) #11
  br label %50

49:                                               ; preds = %36
  %brmerge = select i1 %38, i1 true, i1 %40
  %.mux = select i1 %38, i32 -1, i32 1
  br i1 %brmerge, label %50, label %75

50:                                               ; preds = %49, %41
  %.015 = phi i32 [ %48, %41 ], [ %.mux, %49 ]
  %51 = icmp slt i32 %.015, 0
  br i1 %51, label %52, label %55

52:                                               ; preds = %50
  %53 = load i32, ptr %30, align 4, !tbaa !23
  %54 = and i32 %53, 61440
  %switch.selectcmp.i = icmp eq i32 %54, 40960
  %switch.select.i = select i1 %switch.selectcmp.i, i32 -500, i32 -50
  %switch.selectcmp4.i = icmp eq i32 %54, 16384
  %switch.select5.i = select i1 %switch.selectcmp4.i, i32 -1000, i32 %switch.select.i
  br label %74

55:                                               ; preds = %50
  %.not = icmp eq i32 %.015, 0
  br i1 %.not, label %59, label %56

56:                                               ; preds = %55
  %57 = load i32, ptr %33, align 4, !tbaa !23
  %58 = and i32 %57, 61440
  %switch.selectcmp.i22 = icmp eq i32 %58, 40960
  %switch.select.i23 = select i1 %switch.selectcmp.i22, i32 -500, i32 -50
  %switch.selectcmp4.i24 = icmp eq i32 %58, 16384
  %switch.select5.i25 = select i1 %switch.selectcmp4.i24, i32 -1000, i32 %switch.select.i23
  br label %74

59:                                               ; preds = %55
  %bcmp.i = call i32 @bcmp(ptr noundef nonnull readonly dereferenceable(32) %34, ptr noundef nonnull readonly dereferenceable(32) %35, i64 32)
  %.not.i26.not = icmp eq i32 %bcmp.i, 0
  %60 = load i32, ptr %30, align 4, !tbaa !23
  %61 = load i32, ptr %33, align 4, !tbaa !23
  %62 = and i32 %60, 61440
  %63 = icmp eq i32 %62, 16384
  %64 = and i32 %61, 61440
  %65 = icmp ne i32 %64, 16384
  %.not.i28 = xor i1 %63, %65
  br i1 %.not.i26.not, label %69, label %66

66:                                               ; preds = %59
  %67 = icmp eq i32 %62, 40960
  %68 = icmp ne i32 %64, 40960
  %.not5.i = xor i1 %67, %68
  %..i = select i1 %.not5.i, i32 -5, i32 -50
  %.0.i = select i1 %.not.i28, i32 %..i, i32 -100
  br label %score_matches.exit

69:                                               ; preds = %59
  br i1 %.not.i28, label %70, label %score_matches.exit

70:                                               ; preds = %69
  %71 = icmp eq i32 %62, 40960
  %72 = icmp ne i32 %64, 40960
  %.not7.i = xor i1 %71, %72
  br i1 %.not7.i, label %73, label %score_matches.exit

73:                                               ; preds = %70
  %..i30 = select i1 %71, i32 500, i32 250
  %spec.select.i = select i1 %63, i32 1000, i32 %..i30
  br label %score_matches.exit

score_matches.exit:                               ; preds = %73, %70, %69, %66
  %.pn = phi i32 [ %.0.i, %66 ], [ -100, %69 ], [ -50, %70 ], [ %spec.select.i, %73 ]
  call void @update_tree_entry(ptr noundef nonnull %8) #11
  br label %74

74:                                               ; preds = %52, %score_matches.exit, %56
  %.sink = phi ptr [ %8, %52 ], [ %9, %score_matches.exit ], [ %9, %56 ]
  %.pn18 = phi i32 [ %switch.select5.i, %52 ], [ %.pn, %score_matches.exit ], [ %switch.select5.i25, %56 ]
  call void @update_tree_entry(ptr noundef nonnull %.sink) #11
  %.2 = add nsw i32 %.pn18, %.016
  br label %36

75:                                               ; preds = %49
  call void @free(ptr noundef %10) #11
  call void @free(ptr noundef %18) #11
  call void @llvm.lifetime.end.p0(i64 80, ptr nonnull %9) #11
  call void @llvm.lifetime.end.p0(i64 80, ptr nonnull %8) #11
  ret i32 %.016
}